; ModuleID = '32/1174.c'
source_filename = "32/1174.c"
target datalayout = "e-m:e-p270:32:32-p271:32:32-p272:64:64-i64:64-f80:128-n8:16:32:64-S128"
target triple = "x86_64-pc-linux-gnu"

@.str = private unnamed_addr constant [3 x i8] c"%d\00", align 1
@.str.1 = private unnamed_addr constant [6 x i8] c"%s %s\00", align 1
@.str.2 = private unnamed_addr constant [2 x i8] c"0\00", align 1
@.str.3 = private unnamed_addr constant [2 x i8] c"\0A\00", align 1

; Function Attrs: noinline nounwind uwtable
define dso_local i32 @leap(i32* %0, i32 %1) #0 {
  %3 = alloca i32, align 4
  %4 = alloca i32*, align 8
  %5 = alloca i32, align 4
  store i32* %0, i32** %4, align 8
  store i32 %1, i32* %5, align 4
  %6 = load i32, i32* %5, align 4
  %7 = icmp eq i32 %6, 0
  br i1 %7, label %8, label %9

8:                                                ; preds = %2
  store i32 -1, i32* %3, align 4
  br label %21

9:                                                ; preds = %2
  %10 = load i32*, i32** %4, align 8
  %11 = load i32, i32* %10, align 4
  %12 = icmp ne i32 %11, 0
  br i1 %12, label %13, label %14

13:                                               ; preds = %9
  store i32 0, i32* %3, align 4
  br label %21

14:                                               ; preds = %9
  %15 = load i32*, i32** %4, align 8
  %16 = getelementptr inbounds i32, i32* %15, i64 1
  %17 = load i32, i32* %5, align 4
  %18 = sub nsw i32 %17, 1
  %19 = call i32 @leap(i32* %16, i32 %18)
  %20 = add nsw i32 %19, 1
  store i32 %20, i32* %3, align 4
  br label %21

21:                                               ; preds = %14, %13, %8
  %22 = load i32, i32* %3, align 4
  ret i32 %22
}

; Function Attrs: noinline nounwind uwtable
define dso_local i32 @main() #0 {
  %1 = alloca i32, align 4
  %2 = alloca i32, align 4
  %3 = alloca i32, align 4
  %4 = alloca [100 x i8], align 16
  %5 = alloca [100 x i8], align 16
  %6 = alloca i32, align 4
  %7 = alloca i32, align 4
  %8 = alloca i32, align 4
  %9 = alloca [100 x i32], align 16
  %10 = alloca i32, align 4
  %11 = alloca i32, align 4
  store i32 0, i32* %1, align 4
  %12 = call i32 (i8*, ...) @__isoc99_scanf(i8* getelementptr inbounds ([3 x i8], [3 x i8]* @.str, i64 0, i64 0), i32* %2)
  store i32 0, i32* %3, align 4
  br label %13

13:                                               ; preds = %127, %0
  %14 = load i32, i32* %3, align 4
  %15 = load i32, i32* %2, align 4
  %16 = icmp slt i32 %14, %15
  br i1 %16, label %17, label %130

17:                                               ; preds = %13
  store i32 0, i32* %7, align 4
  store i32 0, i32* %8, align 4
  %18 = bitcast [100 x i32]* %9 to i8*
  call void @llvm.memset.p0i8.i64(i8* align 16 %18, i8 0, i64 400, i1 false)
  %19 = getelementptr inbounds [100 x i8], [100 x i8]* %4, i64 0, i64 0
  %20 = getelementptr inbounds [100 x i8], [100 x i8]* %5, i64 0, i64 0
  %21 = call i32 (i8*, ...) @__isoc99_scanf(i8* getelementptr inbounds ([6 x i8], [6 x i8]* @.str.1, i64 0, i64 0), i8* %19, i8* %20)
  %22 = getelementptr inbounds [100 x i8], [100 x i8]* %4, i64 0, i64 0
  %23 = call i64 @strlen(i8* %22) #4
  %24 = trunc i64 %23 to i32
  store i32 %24, i32* %10, align 4
  %25 = getelementptr inbounds [100 x i8], [100 x i8]* %5, i64 0, i64 0
  %26 = call i64 @strlen(i8* %25) #4
  %27 = trunc i64 %26 to i32
  store i32 %27, i32* %11, align 4
  %28 = load i32, i32* %11, align 4
  %29 = sub nsw i32 %28, 1
  store i32 %29, i32* %6, align 4
  br label %30

30:                                               ; preds = %45, %17
  %31 = load i32, i32* %6, align 4
  %32 = icmp sge i32 %31, 0
  br i1 %32, label %33, label %48

33:                                               ; preds = %30
  %34 = load i32, i32* %6, align 4
  %35 = sext i32 %34 to i64
  %36 = getelementptr inbounds [100 x i8], [100 x i8]* %5, i64 0, i64 %35
  %37 = load i8, i8* %36, align 1
  %38 = load i32, i32* %6, align 4
  %39 = load i32, i32* %10, align 4
  %40 = add nsw i32 %38, %39
  %41 = load i32, i32* %11, align 4
  %42 = sub nsw i32 %40, %41
  %43 = sext i32 %42 to i64
  %44 = getelementptr inbounds [100 x i8], [100 x i8]* %5, i64 0, i64 %43
  store i8 %37, i8* %44, align 1
  br label %45

45:                                               ; preds = %33
  %46 = load i32, i32* %6, align 4
  %47 = add nsw i32 %46, -1
  store i32 %47, i32* %6, align 4
  br label %30

48:                                               ; preds = %30
  %49 = load i32, i32* %10, align 4
  %50 = load i32, i32* %11, align 4
  %51 = sub nsw i32 %49, %50
  %52 = sub nsw i32 %51, 1
  store i32 %52, i32* %6, align 4
  br label %53

53:                                               ; preds = %60, %48
  %54 = load i32, i32* %6, align 4
  %55 = icmp sge i32 %54, 0
  br i1 %55, label %56, label %63

56:                                               ; preds = %53
  %57 = load i32, i32* %6, align 4
  %58 = sext i32 %57 to i64
  %59 = getelementptr inbounds [100 x i8], [100 x i8]* %5, i64 0, i64 %58
  store i8 48, i8* %59, align 1
  br label %60

60:                                               ; preds = %56
  %61 = load i32, i32* %6, align 4
  %62 = add nsw i32 %61, -1
  store i32 %62, i32* %6, align 4
  br label %53

63:                                               ; preds = %53
  %64 = load i32, i32* %10, align 4
  %65 = sub nsw i32 %64, 1
  store i32 %65, i32* %6, align 4
  br label %66

66:                                               ; preds = %99, %63
  %67 = load i32, i32* %6, align 4
  %68 = icmp sge i32 %67, 0
  br i1 %68, label %69, label %102

69:                                               ; preds = %66
  %70 = load i32, i32* %6, align 4
  %71 = sext i32 %70 to i64
  %72 = getelementptr inbounds [100 x i8], [100 x i8]* %4, i64 0, i64 %71
  %73 = load i8, i8* %72, align 1
  %74 = sext i8 %73 to i32
  %75 = load i32, i32* %6, align 4
  %76 = sext i32 %75 to i64
  %77 = getelementptr inbounds [100 x i8], [100 x i8]* %5, i64 0, i64 %76
  %78 = load i8, i8* %77, align 1
  %79 = sext i8 %78 to i32
  %80 = sub nsw i32 %74, %79
  %81 = load i32, i32* %7, align 4
  %82 = sub nsw i32 %80, %81
  %83 = load i32, i32* %6, align 4
  %84 = sext i32 %83 to i64
  %85 = getelementptr inbounds [100 x i32], [100 x i32]* %9, i64 0, i64 %84
  store i32 %82, i32* %85, align 4
  %86 = load i32, i32* %6, align 4
  %87 = sext i32 %86 to i64
  %88 = getelementptr inbounds [100 x i32], [100 x i32]* %9, i64 0, i64 %87
  %89 = load i32, i32* %88, align 4
  %90 = icmp slt i32 %89, 0
  br i1 %90, label %91, label %97

91:                                               ; preds = %69
  %92 = load i32, i32* %6, align 4
  %93 = sext i32 %92 to i64
  %94 = getelementptr inbounds [100 x i32], [100 x i32]* %9, i64 0, i64 %93
  %95 = load i32, i32* %94, align 4
  %96 = add nsw i32 %95, 10
  store i32 %96, i32* %94, align 4
  store i32 1, i32* %7, align 4
  br label %98

97:                                               ; preds = %69
  store i32 0, i32* %7, align 4
  br label %98

98:                                               ; preds = %97, %91
  br label %99

99:                                               ; preds = %98
  %100 = load i32, i32* %6, align 4
  %101 = add nsw i32 %100, -1
  store i32 %101, i32* %6, align 4
  br label %66

102:                                              ; preds = %66
  %103 = getelementptr inbounds [100 x i32], [100 x i32]* %9, i64 0, i64 0
  %104 = load i32, i32* %10, align 4
  %105 = call i32 @leap(i32* %103, i32 %104)
  store i32 %105, i32* %6, align 4
  %106 = load i32, i32* %6, align 4
  %107 = icmp eq i32 %106, -1
  br i1 %107, label %108, label %110

108:                                              ; preds = %102
  %109 = call i32 (i8*, ...) @printf(i8* getelementptr inbounds ([2 x i8], [2 x i8]* @.str.2, i64 0, i64 0))
  br label %125

110:                                              ; preds = %102
  br label %111

111:                                              ; preds = %121, %110
  %112 = load i32, i32* %6, align 4
  %113 = load i32, i32* %10, align 4
  %114 = icmp slt i32 %112, %113
  br i1 %114, label %115, label %124

115:                                              ; preds = %111
  %116 = load i32, i32* %6, align 4
  %117 = sext i32 %116 to i64
  %118 = getelementptr inbounds [100 x i32], [100 x i32]* %9, i64 0, i64 %117
  %119 = load i32, i32* %118, align 4
  %120 = call i32 (i8*, ...) @printf(i8* getelementptr inbounds ([3 x i8], [3 x i8]* @.str, i64 0, i64 0), i32 %119)
  br label %121

121:                                              ; preds = %115
  %122 = load i32, i32* %6, align 4
  %123 = add nsw i32 %122, 1
  store i32 %123, i32* %6, align 4
  br label %111

124:                                              ; preds = %111
  br label %125

125:                                              ; preds = %124, %108
  %126 = call i32 (i8*, ...) @printf(i8* getelementptr inbounds ([2 x i8], [2 x i8]* @.str.3, i64 0, i64 0))
  br label %127

127:                                              ; preds = %125
  %128 = load i32, i32* %3, align 4
  %129 = add nsw i32 %128, 1
  store i32 %129, i32* %3, align 4
  br label %13

130:                                              ; preds = %13
  ret i32 0
}

declare dso_local i32 @__isoc99_scanf(i8*, ...) #1

; Function Attrs: argmemonly nounwind willreturn
declare void @llvm.memset.p0i8.i64(i8* nocapture writeonly, i8, i64, i1 immarg) #2

; Function Attrs: nounwind readonly
declare dso_local i64 @strlen(i8*) #3

declare dso_local i32 @printf(i8*, ...) #1


!llvm.module.flags = !{!0}
!llvm.ident = !{!1}

!0 = !{i32 1, !"wchar_size", i32 4}
!1 = !{!"clang version 10.0.0-4ubuntu1 "}
